; ModuleID = '29/400.c'
source_filename = "29/400.c"
target datalayout = "e-m:e-p270:32:32-p271:32:32-p272:64:64-i64:64-f80:128-n8:16:32:64-S128"
target triple = "x86_64-pc-linux-gnu"

@.str = private unnamed_addr constant [3 x i8] c"%d\00", align 1
@.str.1 = private unnamed_addr constant [7 x i8] c"%.3lf\0A\00", align 1

; Function Attrs: noinline nounwind uwtable
define dso_local i32 @main(i32 %0, i8** %1) #0 {
  %3 = alloca i32, align 4
  %4 = alloca i32, align 4
  %5 = alloca i8**, align 8
  %6 = alloca i32, align 4
  %7 = alloca [100 x i32], align 16
  %8 = alloca i32, align 4
  %9 = alloca [500 x i32], align 16
  %10 = alloca i32, align 4
  %11 = alloca [500 x double], align 16
  %12 = alloca [500 x double], align 16
  store i32 0, i32* %3, align 4
  store i32 %0, i32* %4, align 4
  store i8** %1, i8*** %5, align 8
  %13 = call i32 (i8*, ...) @__isoc99_scanf(i8* getelementptr inbounds ([3 x i8], [3 x i8]* @.str, i64 0, i64 0), i32* %6)
  store i32 0, i32* %8, align 4
  br label %14

14:                                               ; preds = %23, %2
  %15 = load i32, i32* %8, align 4
  %16 = load i32, i32* %6, align 4
  %17 = icmp slt i32 %15, %16
  br i1 %17, label %18, label %26

18:                                               ; preds = %14
  %19 = load i32, i32* %8, align 4
  %20 = sext i32 %19 to i64
  %21 = getelementptr inbounds [100 x i32], [100 x i32]* %7, i64 0, i64 %20
  %22 = call i32 (i8*, ...) @__isoc99_scanf(i8* getelementptr inbounds ([3 x i8], [3 x i8]* @.str, i64 0, i64 0), i32* %21)
  br label %23

23:                                               ; preds = %18
  %24 = load i32, i32* %8, align 4
  %25 = add nsw i32 %24, 1
  store i32 %25, i32* %8, align 4
  br label %14

26:                                               ; preds = %14
  %27 = getelementptr inbounds [500 x i32], [500 x i32]* %9, i64 0, i64 0
  store i32 1, i32* %27, align 16
  %28 = getelementptr inbounds [500 x i32], [500 x i32]* %9, i64 0, i64 1
  store i32 2, i32* %28, align 4
  store i32 2, i32* %8, align 4
  br label %29

29:                                               ; preds = %47, %26
  %30 = load i32, i32* %8, align 4
  %31 = icmp slt i32 %30, 500
  br i1 %31, label %32, label %50

32:                                               ; preds = %29
  %33 = load i32, i32* %8, align 4
  %34 = sub nsw i32 %33, 1
  %35 = sext i32 %34 to i64
  %36 = getelementptr inbounds [500 x i32], [500 x i32]* %9, i64 0, i64 %35
  %37 = load i32, i32* %36, align 4
  %38 = load i32, i32* %8, align 4
  %39 = sub nsw i32 %38, 2
  %40 = sext i32 %39 to i64
  %41 = getelementptr inbounds [500 x i32], [500 x i32]* %9, i64 0, i64 %40
  %42 = load i32, i32* %41, align 4
  %43 = add nsw i32 %37, %42
  %44 = load i32, i32* %8, align 4
  %45 = sext i32 %44 to i64
  %46 = getelementptr inbounds [500 x i32], [500 x i32]* %9, i64 0, i64 %45
  store i32 %43, i32* %46, align 4
  br label %47

47:                                               ; preds = %32
  %48 = load i32, i32* %8, align 4
  %49 = add nsw i32 %48, 1
  store i32 %49, i32* %8, align 4
  br label %29

50:                                               ; preds = %29
  %51 = bitcast [500 x double]* %12 to i8*
  call void @llvm.memset.p0i8.i64(i8* align 16 %51, i8 0, i64 4000, i1 false)
  store i32 0, i32* %8, align 4
  br label %52

52:                                               ; preds = %71, %50
  %53 = load i32, i32* %8, align 4
  %54 = icmp slt i32 %53, 500
  br i1 %54, label %55, label %74

55:                                               ; preds = %52
  %56 = load i32, i32* %8, align 4
  %57 = add nsw i32 %56, 1
  %58 = sext i32 %57 to i64
  %59 = getelementptr inbounds [500 x i32], [500 x i32]* %9, i64 0, i64 %58
  %60 = load i32, i32* %59, align 4
  %61 = sitofp i32 %60 to double
  %62 = load i32, i32* %8, align 4
  %63 = sext i32 %62 to i64
  %64 = getelementptr inbounds [500 x i32], [500 x i32]* %9, i64 0, i64 %63
  %65 = load i32, i32* %64, align 4
  %66 = sitofp i32 %65 to double
  %67 = fdiv double %61, %66
  %68 = load i32, i32* %8, align 4
  %69 = sext i32 %68 to i64
  %70 = getelementptr inbounds [500 x double], [500 x double]* %11, i64 0, i64 %69
  store double %67, double* %70, align 8
  br label %71

71:                                               ; preds = %55
  %72 = load i32, i32* %8, align 4
  %73 = add nsw i32 %72, 1
  store i32 %73, i32* %8, align 4
  br label %52

74:                                               ; preds = %52
  store i32 0, i32* %8, align 4
  br label %75

75:                                               ; preds = %109, %74
  %76 = load i32, i32* %8, align 4
  %77 = load i32, i32* %6, align 4
  %78 = icmp slt i32 %76, %77
  br i1 %78, label %79, label %112

79:                                               ; preds = %75
  store i32 0, i32* %10, align 4
  br label %80

80:                                               ; preds = %100, %79
  %81 = load i32, i32* %10, align 4
  %82 = load i32, i32* %8, align 4
  %83 = sext i32 %82 to i64
  %84 = getelementptr inbounds [100 x i32], [100 x i32]* %7, i64 0, i64 %83
  %85 = load i32, i32* %84, align 4
  %86 = icmp slt i32 %81, %85
  br i1 %86, label %87, label %103

87:                                               ; preds = %80
  %88 = load i32, i32* %10, align 4
  %89 = sext i32 %88 to i64
  %90 = getelementptr inbounds [500 x double], [500 x double]* %11, i64 0, i64 %89
  %91 = load double, double* %90, align 8
  %92 = load i32, i32* %8, align 4
  %93 = sext i32 %92 to i64
  %94 = getelementptr inbounds [500 x double], [500 x double]* %12, i64 0, i64 %93
  %95 = load double, double* %94, align 8
  %96 = fadd double %91, %95
  %97 = load i32, i32* %8, align 4
  %98 = sext i32 %97 to i64
  %99 = getelementptr inbounds [500 x double], [500 x double]* %12, i64 0, i64 %98
  store double %96, double* %99, align 8
  br label %100

100:                                              ; preds = %87
  %101 = load i32, i32* %10, align 4
  %102 = add nsw i32 %101, 1
  store i32 %102, i32* %10, align 4
  br label %80

103:                                              ; preds = %80
  %104 = load i32, i32* %8, align 4
  %105 = sext i32 %104 to i64
  %106 = getelementptr inbounds [500 x double], [500 x double]* %12, i64 0, i64 %105
  %107 = load double, double* %106, align 8
  %108 = call i32 (i8*, ...) @printf(i8* getelementptr inbounds ([7 x i8], [7 x i8]* @.str.1, i64 0, i64 0), double %107)
  br label %109

109:                                              ; preds = %103
  %110 = load i32, i32* %8, align 4
  %111 = add nsw i32 %110, 1
  store i32 %111, i32* %8, align 4
  br label %75

112:                                              ; preds = %75
  ret i32 0
}

declare dso_local i32 @__isoc99_scanf(i8*, ...) #1

; Function Attrs: argmemonly nounwind willreturn
declare void @llvm.memset.p0i8.i64(i8* nocapture writeonly, i8, i64, i1 immarg) #2

declare dso_local i32 @printf(i8*, ...) #1


!llvm.module.flags = !{!0}
!llvm.ident = !{!1}

!0 = !{i32 1, !"wchar_size", i32 4}
!1 = !{!"clang version 10.0.0-4ubuntu1 "}
